; Function Attrs: nounwind uwtable
define ptr @Abc_NtkTopmost_rec(ptr noundef %0, ptr noundef captures(none) %1, i32 noundef %2) local_unnamed_addr #0 {
  %4 = getelementptr inbounds nuw i8, ptr %1, i64 64
  %5 = load ptr, ptr %4, align 8
  %.not = icmp eq ptr %5, null
  br i1 %.not, label %6, label %common.ret

6:                                                ; preds = %3
  %7 = getelementptr inbounds nuw i8, ptr %1, i64 20
  %8 = load i32, ptr %7, align 4
  %9 = lshr i32 %8, 12
  %.not18 = icmp ugt i32 %9, %2
  br i1 %.not18, label %12, label %10

10:                                               ; preds = %6
  %11 = tail call ptr @Abc_NtkCreateObj(ptr noundef %0, i32 noundef 2) #11
  br label %common.ret.sink.split

common.ret.sink.split:                            ; preds = %12, %10
  %.sink = phi ptr [ %11, %10 ], [ %54, %12 ]
  store ptr %.sink, ptr %4, align 8
  br label %common.ret

common.ret:                                       ; preds = %common.ret.sink.split, %3
  %common.ret.op = phi ptr [ %5, %3 ], [ %.sink, %common.ret.sink.split ]
  ret ptr %common.ret.op

12:                                               ; preds = %6
  %.val = load ptr, ptr %1, align 8
  %13 = getelementptr i8, ptr %1, i64 32
  %.val19 = load ptr, ptr %13, align 8
  %14 = getelementptr i8, ptr %.val, i64 32
  %.val.val = load ptr, ptr %14, align 8
  %.val19.val = load i32, ptr %.val19, align 4
  %15 = getelementptr i8, ptr %.val.val, i64 8
  %.val.val.val = load ptr, ptr %15, align 8
  %16 = sext i32 %.val19.val to i64
  %17 = getelementptr inbounds ptr, ptr %.val.val.val, i64 %16
  %18 = load ptr, ptr %17, align 8
  %19 = tail call ptr @Abc_NtkTopmost_rec(ptr noundef %0, ptr noundef %18, i32 noundef %2)
  %.val20 = load ptr, ptr %1, align 8
  %.val21 = load ptr, ptr %13, align 8
  %20 = getelementptr i8, ptr %.val20, i64 32
  %.val20.val = load ptr, ptr %20, align 8
  %21 = getelementptr i8, ptr %.val21, i64 4
  %.val21.val = load i32, ptr %21, align 4
  %22 = getelementptr i8, ptr %.val20.val, i64 8
  %.val20.val.val = load ptr, ptr %22, align 8
  %23 = sext i32 %.val21.val to i64
  %24 = getelementptr inbounds ptr, ptr %.val20.val.val, i64 %23
  %25 = load ptr, ptr %24, align 8
  %26 = tail call ptr @Abc_NtkTopmost_rec(ptr noundef %0, ptr noundef %25, i32 noundef %2)
  %27 = getelementptr inbounds nuw i8, ptr %0, i64 256
  %28 = load ptr, ptr %27, align 8
  %.val.i = load ptr, ptr %1, align 8
  %.val2.i = load ptr, ptr %13, align 8
  %29 = getelementptr i8, ptr %.val.i, i64 32
  %.val.val.i = load ptr, ptr %29, align 8
  %.val2.val.i = load i32, ptr %.val2.i, align 4
  %30 = getelementptr i8, ptr %.val.val.i, i64 8
  %.val.val.val.i = load ptr, ptr %30, align 8
  %31 = sext i32 %.val2.val.i to i64
  %32 = getelementptr inbounds ptr, ptr %.val.val.val.i, i64 %31
  %33 = load ptr, ptr %32, align 8
  %34 = getelementptr inbounds nuw i8, ptr %33, i64 64
  %35 = load ptr, ptr %34, align 8
  %.val3.i = load i32, ptr %7, align 4
  %36 = lshr i32 %.val3.i, 10
  %37 = and i32 %36, 1
  %38 = ptrtoint ptr %35 to i64
  %39 = zext nneg i32 %37 to i64
  %40 = xor i64 %39, %38
  %41 = inttoptr i64 %40 to ptr
  %42 = getelementptr i8, ptr %.val2.i, i64 4
  %.val2.val.i25 = load i32, ptr %42, align 4
  %43 = sext i32 %.val2.val.i25 to i64
  %44 = getelementptr inbounds ptr, ptr %.val.val.val.i, i64 %43
  %45 = load ptr, ptr %44, align 8
  %46 = getelementptr inbounds nuw i8, ptr %45, i64 64
  %47 = load ptr, ptr %46, align 8
  %48 = lshr i32 %.val3.i, 11
  %49 = and i32 %48, 1
  %50 = ptrtoint ptr %47 to i64
  %51 = zext nneg i32 %49 to i64
  %52 = xor i64 %50, %51
  %53 = inttoptr i64 %52 to ptr
  %54 = tail call ptr @Abc_AigAnd(ptr noundef %28, ptr noundef %41, ptr noundef %53) #11
  br label %common.ret.sink.split
}